; ModuleID = '31/405.c'
source_filename = "31/405.c"
target datalayout = "e-m:e-p270:32:32-p271:32:32-p272:64:64-i64:64-f80:128-n8:16:32:64-S128"
target triple = "x86_64-pc-linux-gnu"

%struct.stu = type { [100 x i8], [100 x i8], [3 x i8], [10 x i8], [10 x i8], [100 x i8], %struct.stu* }

@.str = private unnamed_addr constant [13 x i8] c"%s%s%s%s%s%s\00", align 1
@.str.1 = private unnamed_addr constant [3 x i8] c"%s\00", align 1
@.str.2 = private unnamed_addr constant [4 x i8] c"end\00", align 1
@.str.3 = private unnamed_addr constant [11 x i8] c"%s%s%s%s%s\00", align 1
@.str.4 = private unnamed_addr constant [19 x i8] c"%s %s %s %s %s %s\0A\00", align 1
@.str.5 = private unnamed_addr constant [18 x i8] c"%s %s %s %s %s %s\00", align 1

; Function Attrs: noinline nounwind uwtable
define dso_local i32 @main() #0 {
  %1 = alloca i32, align 4
  %2 = alloca i32, align 4
  %3 = alloca i32, align 4
  %4 = alloca i32, align 4
  %5 = alloca i32, align 4
  %6 = alloca i32, align 4
  %7 = alloca i32, align 4
  %8 = alloca i32, align 4
  %9 = alloca i32, align 4
  %10 = alloca i32, align 4
  %11 = alloca i32, align 4
  %12 = alloca %struct.stu*, align 8
  %13 = alloca %struct.stu*, align 8
  %14 = alloca %struct.stu*, align 8
  %15 = alloca %struct.stu*, align 8
  %16 = alloca [30 x i8], align 16
  store i32 0, i32* %1, align 4
  %17 = call noalias i8* @malloc(i64 100) #4
  %18 = bitcast i8* %17 to %struct.stu*
  store %struct.stu* %18, %struct.stu** %13, align 8
  %19 = load %struct.stu*, %struct.stu** %13, align 8
  %20 = getelementptr inbounds %struct.stu, %struct.stu* %19, i32 0, i32 0
  %21 = getelementptr inbounds [100 x i8], [100 x i8]* %20, i64 0, i64 0
  %22 = load %struct.stu*, %struct.stu** %13, align 8
  %23 = getelementptr inbounds %struct.stu, %struct.stu* %22, i32 0, i32 1
  %24 = getelementptr inbounds [100 x i8], [100 x i8]* %23, i64 0, i64 0
  %25 = load %struct.stu*, %struct.stu** %13, align 8
  %26 = getelementptr inbounds %struct.stu, %struct.stu* %25, i32 0, i32 2
  %27 = getelementptr inbounds [3 x i8], [3 x i8]* %26, i64 0, i64 0
  %28 = load %struct.stu*, %struct.stu** %13, align 8
  %29 = getelementptr inbounds %struct.stu, %struct.stu* %28, i32 0, i32 3
  %30 = load %struct.stu*, %struct.stu** %13, align 8
  %31 = getelementptr inbounds %struct.stu, %struct.stu* %30, i32 0, i32 4
  %32 = load %struct.stu*, %struct.stu** %13, align 8
  %33 = getelementptr inbounds %struct.stu, %struct.stu* %32, i32 0, i32 5
  %34 = getelementptr inbounds [100 x i8], [100 x i8]* %33, i64 0, i64 0
  %35 = call i32 (i8*, ...) @__isoc99_scanf(i8* getelementptr inbounds ([13 x i8], [13 x i8]* @.str, i64 0, i64 0), i8* %21, i8* %24, i8* %27, [10 x i8]* %29, [10 x i8]* %31, i8* %34)
  %36 = load %struct.stu*, %struct.stu** %13, align 8
  %37 = getelementptr inbounds %struct.stu, %struct.stu* %36, i32 0, i32 6
  store %struct.stu* null, %struct.stu** %37, align 8
  %38 = load %struct.stu*, %struct.stu** %13, align 8
  store %struct.stu* %38, %struct.stu** %15, align 8
  %39 = load %struct.stu*, %struct.stu** %13, align 8
  store %struct.stu* %39, %struct.stu** %14, align 8
  br label %40

40:                                               ; preds = %0, %54
  %41 = call noalias i8* @malloc(i64 100) #4
  %42 = bitcast i8* %41 to %struct.stu*
  store %struct.stu* %42, %struct.stu** %13, align 8
  %43 = load %struct.stu*, %struct.stu** %13, align 8
  %44 = getelementptr inbounds %struct.stu, %struct.stu* %43, i32 0, i32 0
  %45 = getelementptr inbounds [100 x i8], [100 x i8]* %44, i64 0, i64 0
  %46 = call i32 (i8*, ...) @__isoc99_scanf(i8* getelementptr inbounds ([3 x i8], [3 x i8]* @.str.1, i64 0, i64 0), i8* %45)
  %47 = load %struct.stu*, %struct.stu** %13, align 8
  %48 = getelementptr inbounds %struct.stu, %struct.stu* %47, i32 0, i32 0
  %49 = getelementptr inbounds [100 x i8], [100 x i8]* %48, i64 0, i64 0
  %50 = call i32 @strcmp(i8* %49, i8* getelementptr inbounds ([4 x i8], [4 x i8]* @.str.2, i64 0, i64 0)) #5
  %51 = icmp eq i32 %50, 0
  br i1 %51, label %52, label %54

52:                                               ; preds = %40
  %53 = load %struct.stu*, %struct.stu** %14, align 8
  store %struct.stu* %53, %struct.stu** %15, align 8
  br label %73

54:                                               ; preds = %40
  %55 = load %struct.stu*, %struct.stu** %13, align 8
  %56 = getelementptr inbounds %struct.stu, %struct.stu* %55, i32 0, i32 1
  %57 = getelementptr inbounds [100 x i8], [100 x i8]* %56, i64 0, i64 0
  %58 = load %struct.stu*, %struct.stu** %13, align 8
  %59 = getelementptr inbounds %struct.stu, %struct.stu* %58, i32 0, i32 2
  %60 = getelementptr inbounds [3 x i8], [3 x i8]* %59, i64 0, i64 0
  %61 = load %struct.stu*, %struct.stu** %13, align 8
  %62 = getelementptr inbounds %struct.stu, %struct.stu* %61, i32 0, i32 3
  %63 = load %struct.stu*, %struct.stu** %13, align 8
  %64 = getelementptr inbounds %struct.stu, %struct.stu* %63, i32 0, i32 4
  %65 = load %struct.stu*, %struct.stu** %13, align 8
  %66 = getelementptr inbounds %struct.stu, %struct.stu* %65, i32 0, i32 5
  %67 = getelementptr inbounds [100 x i8], [100 x i8]* %66, i64 0, i64 0
  %68 = call i32 (i8*, ...) @__isoc99_scanf(i8* getelementptr inbounds ([11 x i8], [11 x i8]* @.str.3, i64 0, i64 0), i8* %57, i8* %60, [10 x i8]* %62, [10 x i8]* %64, i8* %67)
  %69 = load %struct.stu*, %struct.stu** %14, align 8
  %70 = load %struct.stu*, %struct.stu** %13, align 8
  %71 = getelementptr inbounds %struct.stu, %struct.stu* %70, i32 0, i32 6
  store %struct.stu* %69, %struct.stu** %71, align 8
  %72 = load %struct.stu*, %struct.stu** %13, align 8
  store %struct.stu* %72, %struct.stu** %14, align 8
  br label %40

73:                                               ; preds = %52
  %74 = load %struct.stu*, %struct.stu** %15, align 8
  store %struct.stu* %74, %struct.stu** %13, align 8
  br label %75

75:                                               ; preds = %80, %73
  %76 = load %struct.stu*, %struct.stu** %13, align 8
  %77 = getelementptr inbounds %struct.stu, %struct.stu* %76, i32 0, i32 6
  %78 = load %struct.stu*, %struct.stu** %77, align 8
  %79 = icmp ne %struct.stu* %78, null
  br i1 %79, label %80, label %103

80:                                               ; preds = %75
  %81 = load %struct.stu*, %struct.stu** %13, align 8
  %82 = getelementptr inbounds %struct.stu, %struct.stu* %81, i32 0, i32 0
  %83 = getelementptr inbounds [100 x i8], [100 x i8]* %82, i64 0, i64 0
  %84 = load %struct.stu*, %struct.stu** %13, align 8
  %85 = getelementptr inbounds %struct.stu, %struct.stu* %84, i32 0, i32 1
  %86 = getelementptr inbounds [100 x i8], [100 x i8]* %85, i64 0, i64 0
  %87 = load %struct.stu*, %struct.stu** %13, align 8
  %88 = getelementptr inbounds %struct.stu, %struct.stu* %87, i32 0, i32 2
  %89 = getelementptr inbounds [3 x i8], [3 x i8]* %88, i64 0, i64 0
  %90 = load %struct.stu*, %struct.stu** %13, align 8
  %91 = getelementptr inbounds %struct.stu, %struct.stu* %90, i32 0, i32 3
  %92 = getelementptr inbounds [10 x i8], [10 x i8]* %91, i64 0, i64 0
  %93 = load %struct.stu*, %struct.stu** %13, align 8
  %94 = getelementptr inbounds %struct.stu, %struct.stu* %93, i32 0, i32 4
  %95 = getelementptr inbounds [10 x i8], [10 x i8]* %94, i64 0, i64 0
  %96 = load %struct.stu*, %struct.stu** %13, align 8
  %97 = getelementptr inbounds %struct.stu, %struct.stu* %96, i32 0, i32 5
  %98 = getelementptr inbounds [100 x i8], [100 x i8]* %97, i64 0, i64 0
  %99 = call i32 (i8*, ...) @printf(i8* getelementptr inbounds ([19 x i8], [19 x i8]* @.str.4, i64 0, i64 0), i8* %83, i8* %86, i8* %89, i8* %92, i8* %95, i8* %98)
  %100 = load %struct.stu*, %struct.stu** %13, align 8
  %101 = getelementptr inbounds %struct.stu, %struct.stu* %100, i32 0, i32 6
  %102 = load %struct.stu*, %struct.stu** %101, align 8
  store %struct.stu* %102, %struct.stu** %13, align 8
  br label %75

103:                                              ; preds = %75
  %104 = load %struct.stu*, %struct.stu** %13, align 8
  %105 = getelementptr inbounds %struct.stu, %struct.stu* %104, i32 0, i32 0
  %106 = getelementptr inbounds [100 x i8], [100 x i8]* %105, i64 0, i64 0
  %107 = load %struct.stu*, %struct.stu** %13, align 8
  %108 = getelementptr inbounds %struct.stu, %struct.stu* %107, i32 0, i32 1
  %109 = getelementptr inbounds [100 x i8], [100 x i8]* %108, i64 0, i64 0
  %110 = load %struct.stu*, %struct.stu** %13, align 8
  %111 = getelementptr inbounds %struct.stu, %struct.stu* %110, i32 0, i32 2
  %112 = getelementptr inbounds [3 x i8], [3 x i8]* %111, i64 0, i64 0
  %113 = load %struct.stu*, %struct.stu** %13, align 8
  %114 = getelementptr inbounds %struct.stu, %struct.stu* %113, i32 0, i32 3
  %115 = getelementptr inbounds [10 x i8], [10 x i8]* %114, i64 0, i64 0
  %116 = load %struct.stu*, %struct.stu** %13, align 8
  %117 = getelementptr inbounds %struct.stu, %struct.stu* %116, i32 0, i32 4
  %118 = getelementptr inbounds [10 x i8], [10 x i8]* %117, i64 0, i64 0
  %119 = load %struct.stu*, %struct.stu** %13, align 8
  %120 = getelementptr inbounds %struct.stu, %struct.stu* %119, i32 0, i32 5
  %121 = getelementptr inbounds [100 x i8], [100 x i8]* %120, i64 0, i64 0
  %122 = call i32 (i8*, ...) @printf(i8* getelementptr inbounds ([18 x i8], [18 x i8]* @.str.5, i64 0, i64 0), i8* %106, i8* %109, i8* %112, i8* %115, i8* %118, i8* %121)
  ret i32 0
}

; Function Attrs: nounwind
declare dso_local noalias i8* @malloc(i64) #1

declare dso_local i32 @__isoc99_scanf(i8*, ...) #2

; Function Attrs: nounwind readonly
declare dso_local i32 @strcmp(i8*, i8*) #3

declare dso_local i32 @printf(i8*, ...) #2


!llvm.module.flags = !{!0}
!llvm.ident = !{!1}

!0 = !{i32 1, !"wchar_size", i32 4}
!1 = !{!"clang version 10.0.0-4ubuntu1 "}
